target datalayout = "e-m:e-p270:32:32-p271:32:32-p272:64:64-i64:64-i128:128-f80:128-n8:16:32:64-S128"
target triple = "x86_64-pc-linux-gnu"

%struct.bignum_st = type { ptr, i32, i32, i32, i32 }

; Function Attrs: nounwind uwtable
define internal i32 @bn_x2bn(ptr noundef %0, ptr noundef %1, ptr noundef %2, ptr noundef %3) #0 {
  %5 = alloca i32, align 4
  %6 = alloca ptr, align 8
  %7 = alloca ptr, align 8
  %8 = alloca ptr, align 8
  %9 = alloca ptr, align 8
  %10 = alloca ptr, align 8
  %11 = alloca i32, align 4
  %12 = alloca i32, align 4
  %13 = alloca i32, align 4
  %14 = alloca i32, align 4
  store ptr %0, ptr %6, align 8, !tbaa !32
  store ptr %1, ptr %7, align 8, !tbaa !6
  store ptr %2, ptr %8, align 8, !tbaa !34
  store ptr %3, ptr %9, align 8, !tbaa !34
  call void @llvm.lifetime.start.p0(i64 8, ptr %10) #7
  store ptr null, ptr %10, align 8, !tbaa !13
  call void @llvm.lifetime.start.p0(i64 4, ptr %11) #7
  store i32 0, ptr %11, align 4, !tbaa !19
  call void @llvm.lifetime.start.p0(i64 4, ptr %12) #7
  call void @llvm.lifetime.start.p0(i64 4, ptr %13) #7
  %15 = load ptr, ptr %7, align 8, !tbaa !6
  %16 = icmp eq ptr %15, null
  br i1 %16, label %22, label %17

17:                                               ; preds = %4
  %18 = load ptr, ptr %7, align 8, !tbaa !6
  %19 = load i8, ptr %18, align 1, !tbaa !21
  %20 = sext i8 %19 to i32
  %21 = icmp eq i32 %20, 0
  br i1 %21, label %22, label %23

22:                                               ; preds = %17, %4
  store i32 0, ptr %5, align 4
  store i32 1, ptr %14, align 4
  br label %103

23:                                               ; preds = %17
  %24 = load ptr, ptr %7, align 8, !tbaa !6
  %25 = load i8, ptr %24, align 1, !tbaa !21
  %26 = sext i8 %25 to i32
  %27 = icmp eq i32 %26, 45
  br i1 %27, label %28, label %31

28:                                               ; preds = %23
  store i32 1, ptr %11, align 4, !tbaa !19
  %29 = load ptr, ptr %7, align 8, !tbaa !6
  %30 = getelementptr inbounds nuw i8, ptr %29, i32 1
  store ptr %30, ptr %7, align 8, !tbaa !6
  br label %31

31:                                               ; preds = %28, %23
  store i32 0, ptr %12, align 4, !tbaa !19
  br label %32

32:                                               ; preds = %50, %31
  %33 = load ptr, ptr %9, align 8, !tbaa !34
  %34 = load ptr, ptr %7, align 8, !tbaa !6
  %35 = load i32, ptr %12, align 4, !tbaa !19
  %36 = sext i32 %35 to i64
  %37 = getelementptr inbounds i8, ptr %34, i64 %36
  %38 = load i8, ptr %37, align 1, !tbaa !21
  %39 = zext i8 %38 to i32
  %40 = call i32 %33(i32 noundef %39)
  %41 = icmp ne i32 %40, 0
  br i1 %41, label %42, label %47

42:                                               ; preds = %32
  %43 = load i32, ptr %12, align 4, !tbaa !19
  %44 = load i32, ptr %11, align 4, !tbaa !19
  %45 = add nsw i32 %43, %44
  %46 = icmp slt i32 %45, 2147483647
  br label %47

47:                                               ; preds = %42, %32
  %48 = phi i1 [ false, %32 ], [ %46, %42 ]
  br i1 %48, label %49, label %53

49:                                               ; preds = %47
  br label %50

50:                                               ; preds = %49
  %51 = load i32, ptr %12, align 4, !tbaa !19
  %52 = add nsw i32 %51, 1
  store i32 %52, ptr %12, align 4, !tbaa !19
  br label %32, !llvm.loop !35

53:                                               ; preds = %47
  %54 = load i32, ptr %12, align 4, !tbaa !19
  %55 = load i32, ptr %11, align 4, !tbaa !19
  %56 = add nsw i32 %54, %55
  store i32 %56, ptr %13, align 4, !tbaa !19
  %57 = load ptr, ptr %6, align 8, !tbaa !32
  %58 = icmp eq ptr %57, null
  br i1 %58, label %59, label %61

59:                                               ; preds = %53
  %60 = load i32, ptr %13, align 4, !tbaa !19
  store i32 %60, ptr %5, align 4
  store i32 1, ptr %14, align 4
  br label %103

61:                                               ; preds = %53
  %62 = load ptr, ptr %6, align 8, !tbaa !32
  %63 = load ptr, ptr %62, align 8, !tbaa !13
  %64 = icmp eq ptr %63, null
  br i1 %64, label %65, label %71

65:                                               ; preds = %61
  %66 = call ptr @BN_new()
  store ptr %66, ptr %10, align 8, !tbaa !13
  %67 = load ptr, ptr %10, align 8, !tbaa !13
  %68 = icmp eq ptr %67, null
  br i1 %68, label %69, label %70

69:                                               ; preds = %65
  store i32 0, ptr %5, align 4
  store i32 1, ptr %14, align 4
  br label %103

70:                                               ; preds = %65
  br label %75

71:                                               ; preds = %61
  %72 = load ptr, ptr %6, align 8, !tbaa !32
  %73 = load ptr, ptr %72, align 8, !tbaa !13
  store ptr %73, ptr %10, align 8, !tbaa !13
  %74 = load ptr, ptr %10, align 8, !tbaa !13
  call void @BN_zero(ptr noundef %74)
  br label %75

75:                                               ; preds = %71, %70
  %76 = load ptr, ptr %8, align 8, !tbaa !34
  %77 = load ptr, ptr %10, align 8, !tbaa !13
  %78 = load ptr, ptr %7, align 8, !tbaa !6
  %79 = load i32, ptr %12, align 4, !tbaa !19
  %80 = call i32 %76(ptr noundef %77, ptr noundef %78, i32 noundef %79)
  %81 = icmp ne i32 %80, 0
  br i1 %81, label %83, label %82

82:                                               ; preds = %75
  br label %96

83:                                               ; preds = %75
  %84 = load ptr, ptr %10, align 8, !tbaa !13
  call void @bn_correct_top(ptr noundef %84)
  %85 = load ptr, ptr %10, align 8, !tbaa !13
  %86 = call i32 @BN_is_zero(ptr noundef %85)
  %87 = icmp ne i32 %86, 0
  br i1 %87, label %92, label %88

88:                                               ; preds = %83
  %89 = load i32, ptr %11, align 4, !tbaa !19
  %90 = load ptr, ptr %10, align 8, !tbaa !13
  %91 = getelementptr inbounds nuw %struct.bignum_st, ptr %90, i32 0, i32 3
  store i32 %89, ptr %91, align 8, !tbaa !20
  br label %92

92:                                               ; preds = %88, %83
  %93 = load ptr, ptr %10, align 8, !tbaa !13
  %94 = load ptr, ptr %6, align 8, !tbaa !32
  store ptr %93, ptr %94, align 8, !tbaa !13
  %95 = load i32, ptr %13, align 4, !tbaa !19
  store i32 %95, ptr %5, align 4
  store i32 1, ptr %14, align 4
  br label %103

96:                                               ; preds = %82
  %97 = load ptr, ptr %6, align 8, !tbaa !32
  %98 = load ptr, ptr %97, align 8, !tbaa !13
  %99 = icmp eq ptr %98, null
  br i1 %99, label %100, label %102

100:                                              ; preds = %96
  %101 = load ptr, ptr %10, align 8, !tbaa !13
  call void @BN_free(ptr noundef %101)
  br label %102

102:                                              ; preds = %100, %96
  store i32 0, ptr %5, align 4
  store i32 1, ptr %14, align 4
  br label %103

103:                                              ; preds = %102, %92, %69, %59, %22
  call void @llvm.lifetime.end.p0(i64 4, ptr %13) #7
  call void @llvm.lifetime.end.p0(i64 4, ptr %12) #7
  call void @llvm.lifetime.end.p0(i64 4, ptr %11) #7
  call void @llvm.lifetime.end.p0(i64 8, ptr %10) #7
  %104 = load i32, ptr %5, align 4
  ret i32 %104
}

; Function Attrs: nounwind uwtable
define hidden i32 @BN_hex2bn(ptr noundef %0, ptr noundef %1) #0 {
  %3 = alloca ptr, align 8
  %4 = alloca ptr, align 8
  store ptr %0, ptr %3, align 8, !tbaa !32
  store ptr %1, ptr %4, align 8, !tbaa !6
  %5 = load ptr, ptr %3, align 8, !tbaa !32
  %6 = load ptr, ptr %4, align 8, !tbaa !6
  %7 = call i32 @bn_x2bn(ptr noundef %5, ptr noundef %6, ptr noundef @decode_hex, ptr noundef @isxdigit)
  ret i32 %7
}