; Function Attrs: nounwind uwtable
define hidden i32 @BN_hex2bn(ptr noundef captures(address_is_null) %0, ptr noundef readonly captures(address_is_null) %1) local_unnamed_addr #0 {
  %3 = icmp eq ptr %1, null
  br i1 %3, label %bn_x2bn.exit, label %4

4:                                                ; preds = %2
  %5 = load i8, ptr %1, align 1, !tbaa !14
  switch i8 %5, label %8 [
    i8 0, label %bn_x2bn.exit
    i8 45, label %6
  ]

6:                                                ; preds = %4
  %7 = getelementptr inbounds nuw i8, ptr %1, i64 1
  br label %8

8:                                                ; preds = %6, %4
  %.034.i = phi ptr [ %7, %6 ], [ %1, %4 ]
  %.032.i = phi i32 [ 1, %6 ], [ 0, %4 ]
  %9 = zext nneg i32 %.032.i to i64
  br label %10

10:                                               ; preds = %10, %8
  %indvars.iv.i = phi i64 [ %indvars.iv.next.i, %10 ], [ 0, %8 ]
  %11 = getelementptr inbounds nuw i8, ptr %.034.i, i64 %indvars.iv.i
  %12 = load i8, ptr %11, align 1, !tbaa !14
  %13 = zext i8 %12 to i32
  %14 = tail call i32 @isxdigit(i32 noundef %13) #9, !callees !27
  %15 = icmp ne i32 %14, 0
  %16 = add nuw nsw i64 %indvars.iv.i, %9
  %17 = icmp ne i64 %16, 2147483647
  %18 = select i1 %15, i1 %17, i1 false
  %indvars.iv.next.i = add nuw nsw i64 %indvars.iv.i, 1
  br i1 %18, label %10, label %19, !llvm.loop !28

19:                                               ; preds = %10
  %20 = trunc nuw nsw i64 %indvars.iv.i to i32
  %21 = trunc nuw i64 %16 to i32
  %22 = icmp eq ptr %0, null
  br i1 %22, label %bn_x2bn.exit, label %23

23:                                               ; preds = %19
  %24 = load ptr, ptr %0, align 8, !tbaa !29
  %25 = icmp eq ptr %24, null
  br i1 %25, label %26, label %29

26:                                               ; preds = %23
  %27 = tail call ptr @BN_new() #9
  %28 = icmp eq ptr %27, null
  br i1 %28, label %bn_x2bn.exit, label %30

29:                                               ; preds = %23
  tail call void @BN_zero(ptr noundef nonnull %24) #9
  br label %30

30:                                               ; preds = %29, %26
  %.033.i = phi ptr [ %27, %26 ], [ %24, %29 ]
  %31 = icmp samesign ugt i64 %indvars.iv.i, 536870911
  br i1 %31, label %32, label %33

32:                                               ; preds = %30
  tail call void @ERR_put_error(i32 noundef 3, i32 noundef 0, i32 noundef 102, ptr noundef nonnull @.str, i32 noundef 245) #9
  br label %71

33:                                               ; preds = %30
  %34 = shl nuw nsw i64 %indvars.iv.i, 2
  %35 = tail call ptr @bn_expand(ptr noundef nonnull %.033.i, i64 noundef %34) #9
  %36 = icmp eq ptr %35, null
  br i1 %36, label %71, label %.preheader.i

.preheader.i:                                     ; preds = %33
  %.not = icmp eq i64 %indvars.iv.i, 0
  br i1 %.not, label %65, label %.lr.ph.i

.lr.ph.i:                                         ; preds = %.preheader.i
  %37 = load ptr, ptr %.033.i, align 8, !tbaa !15
  br label %38

38:                                               ; preds = %60, %.lr.ph.i
  %indvars.iv53.i = phi i64 [ 0, %.lr.ph.i ], [ %indvars.iv.next54.i, %60 ]
  %.04450.i = phi i32 [ %20, %.lr.ph.i ], [ %62, %60 ]
  %39 = tail call i32 @llvm.umin.i32(i32 %.04450.i, i32 16)
  %umin.i = zext nneg i32 %39 to i64
  %40 = zext nneg i32 %.04450.i to i64
  br label %41

41:                                               ; preds = %56, %38
  %indvars.iv.i2 = phi i64 [ %umin.i, %38 ], [ %indvars.iv.next.i4, %56 ]
  %.04148.i = phi i64 [ 0, %38 ], [ %58, %56 ]
  %42 = sub nsw i64 %40, %indvars.iv.i2
  %43 = getelementptr inbounds i8, ptr %.034.i, i64 %42
  %44 = load i8, ptr %43, align 1, !tbaa !14
  %45 = sext i8 %44 to i32
  %46 = add i8 %44, -48
  %or.cond.i = icmp ult i8 %46, 10
  br i1 %or.cond.i, label %47, label %49

47:                                               ; preds = %41
  %48 = add nsw i32 %45, -48
  br label %56

49:                                               ; preds = %41
  %50 = add i8 %44, -97
  %or.cond5.i = icmp ult i8 %50, 6
  br i1 %or.cond5.i, label %51, label %53

51:                                               ; preds = %49
  %52 = add nsw i32 %45, -87
  br label %56

53:                                               ; preds = %49
  %54 = add i8 %44, -65
  %or.cond8.i = icmp ult i8 %54, 6
  %55 = add nsw i32 %45, -55
  %spec.select47.i = select i1 %or.cond8.i, i32 %55, i32 0
  br label %56

56:                                               ; preds = %53, %51, %47
  %.0.shrunk.i = phi i32 [ %48, %47 ], [ %52, %51 ], [ %spec.select47.i, %53 ]
  %.0.i3 = zext i32 %.0.shrunk.i to i64
  %57 = shl i64 %.04148.i, 4
  %58 = or i64 %57, %.0.i3
  %indvars.iv.next.i4 = add nsw i64 %indvars.iv.i2, -1
  %59 = icmp sgt i64 %indvars.iv.i2, 1
  br i1 %59, label %41, label %60, !llvm.loop !31

60:                                               ; preds = %56
  %indvars.iv.next54.i = add nuw nsw i64 %indvars.iv53.i, 1
  %61 = getelementptr inbounds nuw i64, ptr %37, i64 %indvars.iv53.i
  store i64 %58, ptr %61, align 8, !tbaa !16
  %62 = tail call i32 @llvm.usub.sat.i32(i32 %.04450.i, i32 16)
  %63 = icmp sgt i32 %62, 0
  br i1 %63, label %38, label %._crit_edge.loopexit.i, !llvm.loop !32

._crit_edge.loopexit.i:                           ; preds = %60
  %64 = trunc nuw i64 %indvars.iv.next54.i to i32
  br label %65

65:                                               ; preds = %._crit_edge.loopexit.i, %.preheader.i
  %.043.lcssa.i = phi i32 [ 0, %.preheader.i ], [ %64, %._crit_edge.loopexit.i ]
  %66 = getelementptr inbounds nuw i8, ptr %.033.i, i64 8
  store i32 %.043.lcssa.i, ptr %66, align 8, !tbaa !6
  tail call void @bn_correct_top(ptr noundef nonnull %.033.i) #9
  %67 = tail call i32 @BN_is_zero(ptr noundef nonnull %.033.i) #9
  %.not40.i = icmp eq i32 %67, 0
  br i1 %.not40.i, label %68, label %70

68:                                               ; preds = %65
  %69 = getelementptr inbounds nuw i8, ptr %.033.i, i64 16
  store i32 %.032.i, ptr %69, align 8, !tbaa !13
  br label %70

70:                                               ; preds = %68, %65
  store ptr %.033.i, ptr %0, align 8, !tbaa !29
  br label %bn_x2bn.exit

71:                                               ; preds = %32, %33
  %72 = load ptr, ptr %0, align 8, !tbaa !29
  %73 = icmp eq ptr %72, null
  br i1 %73, label %74, label %bn_x2bn.exit

74:                                               ; preds = %71
  tail call void @BN_free(ptr noundef nonnull %.033.i) #9
  br label %bn_x2bn.exit

bn_x2bn.exit:                                     ; preds = %2, %4, %19, %26, %70, %71, %74
  %.0.i = phi i32 [ %21, %70 ], [ 0, %4 ], [ 0, %2 ], [ %21, %19 ], [ 0, %26 ], [ 0, %74 ], [ 0, %71 ]
  ret i32 %.0.i
}